	.file	"quick_sort.c"
	.text
	.globl	Swap
	.type	Swap, @function
Swap:
.LFB0:
	.cfi_startproc
	endbr64
	pushq	%rbp
	.cfi_def_cfa_offset 16
	.cfi_offset 6, -16
	movq	%rsp, %rbp
	.cfi_def_cfa_register 6
	movq	%rdi, -24(%rbp)
	movl	%esi, -28(%rbp)
	movl	%edx, -32(%rbp)
	movl	-28(%rbp), %eax
	cltq
	leaq	0(,%rax,4), %rdx
	movq	-24(%rbp), %rax
	addq	%rdx, %rax
	movl	(%rax), %eax
	movl	%eax, -4(%rbp)
	movl	-32(%rbp), %eax
	cltq
	leaq	0(,%rax,4), %rdx
	movq	-24(%rbp), %rax
	addq	%rdx, %rax
	movl	-28(%rbp), %edx
	movslq	%edx, %rdx
	leaq	0(,%rdx,4), %rcx
	movq	-24(%rbp), %rdx
	addq	%rcx, %rdx
	movl	(%rax), %eax
	movl	%eax, (%rdx)
	movl	-32(%rbp), %eax
	cltq
	leaq	0(,%rax,4), %rdx
	movq	-24(%rbp), %rax
	addq	%rax, %rdx
	movl	-4(%rbp), %eax
	movl	%eax, (%rdx)
	movl	$0, %eax
	popq	%rbp
	.cfi_def_cfa 7, 8
	ret
	.cfi_endproc
.LFE0:
	.size	Swap, .-Swap
	.globl	Partition
	.type	Partition, @function
Partition:
.LFB1:
	.cfi_startproc
	endbr64
	pushq	%rbp
	.cfi_def_cfa_offset 16
	.cfi_offset 6, -16
	movq	%rsp, %rbp
	.cfi_def_cfa_register 6
	subq	$32, %rsp
	movq	%rdi, -24(%rbp)
	movl	%esi, -28(%rbp)
	movl	%edx, -32(%rbp)
	movl	-28(%rbp), %eax
	cltq
	leaq	0(,%rax,4), %rdx
	movq	-24(%rbp), %rax
	addq	%rdx, %rax
	movl	(%rax), %eax
	movl	%eax, -4(%rbp)
	jmp	.L4
.L7:
	subl	$1, -32(%rbp)
.L5:
	movl	-28(%rbp), %eax
	cmpl	-32(%rbp), %eax
	jge	.L6
	movl	-32(%rbp), %eax
	cltq
	leaq	0(,%rax,4), %rdx
	movq	-24(%rbp), %rax
	addq	%rdx, %rax
	movl	(%rax), %eax
	cmpl	%eax, -4(%rbp)
	jle	.L7
.L6:
	movl	-32(%rbp), %edx
	movl	-28(%rbp), %ecx
	movq	-24(%rbp), %rax
	movl	%ecx, %esi
	movq	%rax, %rdi
	call	Swap
	jmp	.L8
.L10:
	addl	$1, -28(%rbp)
.L8:
	movl	-28(%rbp), %eax
	cmpl	-32(%rbp), %eax
	jge	.L9
	movl	-28(%rbp), %eax
	cltq
	leaq	0(,%rax,4), %rdx
	movq	-24(%rbp), %rax
	addq	%rdx, %rax
	movl	(%rax), %eax
	cmpl	%eax, -4(%rbp)
	jge	.L10
.L9:
	movl	-32(%rbp), %edx
	movl	-28(%rbp), %ecx
	movq	-24(%rbp), %rax
	movl	%ecx, %esi
	movq	%rax, %rdi
	call	Swap
.L4:
	movl	-28(%rbp), %eax
	cmpl	-32(%rbp), %eax
	jl	.L5
	movl	-28(%rbp), %eax
	leave
	.cfi_def_cfa 7, 8
	ret
	.cfi_endproc
.LFE1:
	.size	Partition, .-Partition
	.globl	QuickSort
	.type	QuickSort, @function
QuickSort:
.LFB2:
	.cfi_startproc
	endbr64
	pushq	%rbp
	.cfi_def_cfa_offset 16
	.cfi_offset 6, -16
	movq	%rsp, %rbp
	.cfi_def_cfa_register 6
	subq	$32, %rsp
	movq	%rdi, -24(%rbp)
	movl	%esi, -28(%rbp)
	movl	%edx, -32(%rbp)
	movl	-28(%rbp), %eax
	cmpl	-32(%rbp), %eax
	jge	.L14
	movl	-32(%rbp), %edx
	movl	-28(%rbp), %ecx
	movq	-24(%rbp), %rax
	movl	%ecx, %esi
	movq	%rax, %rdi
	call	Partition
	movl	%eax, -4(%rbp)
	movl	-4(%rbp), %eax
	leal	-1(%rax), %edx
	movl	-28(%rbp), %ecx
	movq	-24(%rbp), %rax
	movl	%ecx, %esi
	movq	%rax, %rdi
	call	QuickSort
	movl	-4(%rbp), %eax
	leal	1(%rax), %ecx
	movl	-32(%rbp), %edx
	movq	-24(%rbp), %rax
	movl	%ecx, %esi
	movq	%rax, %rdi
	call	QuickSort
.L14:
	movl	$0, %eax
	leave
	.cfi_def_cfa 7, 8
	ret
	.cfi_endproc
.LFE2:
	.size	QuickSort, .-QuickSort
	.globl	main
	.type	main, @function
main:
.LFB3:
	.cfi_startproc
	endbr64
	pushq	%rbp
	.cfi_def_cfa_offset 16
	.cfi_offset 6, -16
	movq	%rsp, %rbp
	.cfi_def_cfa_register 6
	subq	$64, %rsp
	movq	%fs:40, %rax
	movq	%rax, -8(%rbp)
	xorl	%eax, %eax
	movl	$8, -52(%rbp)
	movl	$0, -56(%rbp)
	jmp	.L17
.L18:
	movl	$0, %eax
	call	getint@PLT
	movl	-56(%rbp), %edx
	movslq	%edx, %rdx
	movl	%eax, -48(%rbp,%rdx,4)
	addl	$1, -56(%rbp)
.L17:
	movl	-56(%rbp), %eax
	cmpl	-52(%rbp), %eax
	jl	.L18
	movl	-52(%rbp), %eax
	leal	-1(%rax), %edx
	leaq	-48(%rbp), %rax
	movl	$0, %esi
	movq	%rax, %rdi
	call	QuickSort
	movl	$0, -56(%rbp)
	jmp	.L19
.L20:
	movl	-56(%rbp), %eax
	cltq
	movl	-48(%rbp,%rax,4), %eax
	movl	%eax, %edi
	movl	$0, %eax
	call	putint@PLT
	movl	$32, %edi
	movl	$0, %eax
	call	putch@PLT
	addl	$1, -56(%rbp)
.L19:
	movl	-56(%rbp), %eax
	cmpl	-52(%rbp), %eax
	jl	.L20
	movl	$0, %eax
	movq	-8(%rbp), %rdx
	subq	%fs:40, %rdx
	je	.L22
	call	__stack_chk_fail@PLT
.L22:
	leave
	.cfi_def_cfa 7, 8
	ret
	.cfi_endproc
.LFE3:
	.size	main, .-main
	.ident	"GCC: (Ubuntu 11.4.0-1ubuntu1~22.04) 11.4.0"
	.section	.note.GNU-stack,"",@progbits
	.section	.note.gnu.property,"a"
	.align 8
	.long	1f - 0f
	.long	4f - 1f
	.long	5
0:
	.string	"GNU"
1:
	.align 8
	.long	0xc0000002
	.long	3f - 2f
2:
	.long	0x3
3:
	.align 8
4:
